target datalayout = "e-m:e-p270:32:32-p271:32:32-p272:64:64-i64:64-i128:128-f80:128-n8:16:32:64-S128"
target triple = "x86_64-pc-linux-gnu"

%"class.std::__cxx11::basic_string" = type { %"struct.std::__cxx11::basic_string<char>::_Alloc_hider", i64, %union.anon }
%"struct.std::__cxx11::basic_string<char>::_Alloc_hider" = type { ptr }
%union.anon = type { i64, [8 x i8] }
%"struct.faiss::IOReader" = type { ptr, %"class.std::__cxx11::basic_string" }
%"struct.faiss::FileIOReader" = type <{ %"struct.faiss::IOReader", ptr, i8, [7 x i8] }>

@_ZTVN5faiss8IOReaderE = unnamed_addr constant { [6 x ptr] } { [6 x ptr] [ptr null, ptr @_ZTIN5faiss8IOReaderE, ptr @__cxa_pure_virtual, ptr @_ZN5faiss8IOReader6filenoEv, ptr @_ZN5faiss8IOReaderD2Ev, ptr @_ZN5faiss8IOReaderD0Ev] }, align 8
@_ZTVN5faiss12FileIOReaderE = unnamed_addr constant { [6 x ptr] } { [6 x ptr] [ptr null, ptr @_ZTIN5faiss12FileIOReaderE, ptr @_ZN5faiss12FileIOReaderclEPvmm, ptr @_ZN5faiss12FileIOReader6filenoEv, ptr @_ZN5faiss12FileIOReaderD1Ev, ptr @_ZN5faiss12FileIOReaderD0Ev] }, align 8
@stderr = external global ptr, align 8
@.str.8 = private unnamed_addr constant [24 x i8] c"file %s close error: %s\00", align 1

; Function Attrs: noreturn nounwind uwtable
define linkonce_odr hidden void @__clang_call_terminate(ptr noundef %0) #6 comdat {
  %2 = call ptr @__cxa_begin_catch(ptr %0) #12
  call void @_ZSt9terminatev() #14
  unreachable
}

; Function Attrs: mustprogress nounwind uwtable
define linkonce_odr void @_ZN5faiss8IOReaderD2Ev(ptr noundef nonnull align 8 dereferenceable(40) %0) unnamed_addr #1 comdat align 2 {
  %2 = alloca ptr, align 8
  store ptr %0, ptr %2, align 8
  %3 = load ptr, ptr %2, align 8
  store ptr getelementptr inbounds ({ [6 x ptr] }, ptr @_ZTVN5faiss8IOReaderE, i32 0, i32 0, i32 2), ptr %3, align 8
  %4 = getelementptr inbounds %"struct.faiss::IOReader", ptr %3, i32 0, i32 1
  call void @_ZNSt7__cxx1112basic_stringIcSt11char_traitsIcESaIcEED1Ev(ptr noundef nonnull align 8 dereferenceable(32) %4) #12
  ret void
}

; Function Attrs: mustprogress nounwind uwtable
define void @_ZN5faiss12FileIOReaderD2Ev(ptr noundef nonnull align 8 dereferenceable(49) %0) unnamed_addr #1 align 2 personality ptr @__gxx_personality_v0 {
  %2 = alloca ptr, align 8
  %3 = alloca i32, align 4
  store ptr %0, ptr %2, align 8
  %4 = load ptr, ptr %2, align 8
  store ptr getelementptr inbounds ({ [6 x ptr] }, ptr @_ZTVN5faiss12FileIOReaderE, i32 0, i32 0, i32 2), ptr %4, align 8
  %5 = getelementptr inbounds %"struct.faiss::FileIOReader", ptr %4, i32 0, i32 2
  %6 = load i8, ptr %5, align 8
  %7 = trunc i8 %6 to i1
  br i1 %7, label %8, label %24

8:                                                ; preds = %1
  %9 = getelementptr inbounds %"struct.faiss::FileIOReader", ptr %4, i32 0, i32 1
  %10 = load ptr, ptr %9, align 8
  %11 = invoke i32 @fclose(ptr noundef %10)
          to label %12 unwind label %25

12:                                               ; preds = %8
  store i32 %11, ptr %3, align 4
  %13 = load i32, ptr %3, align 4
  %14 = icmp ne i32 %13, 0
  br i1 %14, label %15, label %23

15:                                               ; preds = %12
  %16 = load ptr, ptr @stderr, align 8
  %17 = getelementptr inbounds %"struct.faiss::IOReader", ptr %4, i32 0, i32 1
  %18 = call noundef ptr @_ZNKSt7__cxx1112basic_stringIcSt11char_traitsIcESaIcEE5c_strEv(ptr noundef nonnull align 8 dereferenceable(32) %17) #12
  %19 = call ptr @__errno_location() #17
  %20 = load i32, ptr %19, align 4
  %21 = call ptr @strerror(i32 noundef %20) #12
  %22 = call i32 (ptr, ptr, ...) @fprintf(ptr noundef %16, ptr noundef @.str.8, ptr noundef %18, ptr noundef %21) #12
  br label %23

23:                                               ; preds = %15, %12
  br label %24

24:                                               ; preds = %23, %1
  call void @_ZN5faiss8IOReaderD2Ev(ptr noundef nonnull align 8 dereferenceable(40) %4) #12
  ret void

25:                                               ; preds = %8
  %26 = landingpad { ptr, i32 }
          catch ptr null
  %27 = extractvalue { ptr, i32 } %26, 0
  call void @__clang_call_terminate(ptr %27) #14
  unreachable
}